target datalayout = "e-m:e-p270:32:32-p271:32:32-p272:64:64-i64:64-i128:128-f80:128-n8:16:32:64-S128"
target triple = "x86_64-pc-linux-gnu"

%struct.strbuf = type { i64, i64, ptr }

@__const.absolute_pathdup.sb = private unnamed_addr constant %struct.strbuf { i64 0, i64 0, ptr @strbuf_slopbuf }, align 8

; Function Attrs: nounwind uwtable
define dso_local ptr @absolute_pathdup(ptr noundef %0) #0 {
  %2 = alloca ptr, align 8
  %3 = alloca %struct.strbuf, align 8
  store ptr %0, ptr %2, align 8, !tbaa !4
  call void @llvm.lifetime.start.p0(i64 24, ptr %3) #9
  call void @llvm.memcpy.p0.p0.i64(ptr align 8 %3, ptr align 8 @__const.absolute_pathdup.sb, i64 24, i1 false)
  %4 = load ptr, ptr %2, align 8, !tbaa !4
  call void @strbuf_add_absolute_path(ptr noundef %3, ptr noundef %4)
  %5 = call ptr @strbuf_detach(ptr noundef %3, ptr noundef null)
  call void @llvm.lifetime.end.p0(i64 24, ptr %3) #9
  ret ptr %5
}