; Function Attrs: nounwind uwtable
define dso_local ptr @absolute_pathdup(ptr noundef %0) local_unnamed_addr #3 {
  %2 = alloca %struct.strbuf, align 8
  call void @llvm.lifetime.start.p0(i64 24, ptr nonnull %2) #12
  call void @llvm.memcpy.p0.p0.i64(ptr noundef nonnull align 8 dereferenceable(24) %2, ptr noundef nonnull align 8 dereferenceable(24) @__const.strbuf_realpath_1.symlink, i64 24, i1 false)
  call void @strbuf_add_absolute_path(ptr noundef nonnull %2, ptr noundef %0)
  %3 = call ptr @strbuf_detach(ptr noundef nonnull %2, ptr noundef null) #12
  call void @llvm.lifetime.end.p0(i64 24, ptr nonnull %2) #12
  ret ptr %3
}